; Function Attrs: mustprogress nounwind uwtable
define void @_ZN5faiss14IndexNNDescentD2Ev(ptr noundef nonnull align 8 dereferenceable(144) %0) unnamed_addr #0 align 2 {
  store ptr getelementptr inbounds ({ [24 x ptr] }, ptr @_ZTVN5faiss14IndexNNDescentE, i64 0, i32 0, i64 2), ptr %0, align 8
  %2 = getelementptr inbounds i8, ptr %0, i64 128
  %3 = load i8, ptr %2, align 8
  %4 = and i8 %3, 1
  %.not = icmp eq i8 %4, 0
  br i1 %.not, label %13, label %5

5:                                                ; preds = %1
  %6 = getelementptr inbounds i8, ptr %0, i64 136
  %7 = load ptr, ptr %6, align 8
  %8 = icmp eq ptr %7, null
  br i1 %8, label %13, label %9

9:                                                ; preds = %5
  %10 = load ptr, ptr %7, align 8
  %11 = getelementptr inbounds i8, ptr %10, i64 8
  %12 = load ptr, ptr %11, align 8
  tail call void %12(ptr noundef nonnull align 8 dereferenceable(36) %7) #8
  br label %13

13:                                               ; preds = %5, %9, %1
  %14 = getelementptr inbounds i8, ptr %0, i64 40
  tail call void @_ZN5faiss9NNDescentD1Ev(ptr noundef nonnull align 8 dereferenceable(88) %14) #8
  tail call void @_ZN5faiss5IndexD2Ev(ptr noundef nonnull align 8 dereferenceable(36) %0) #8
  ret void
}